target datalayout = "e-m:e-p270:32:32-p271:32:32-p272:64:64-i64:64-i128:128-f80:128-n8:16:32:64-S128"
target triple = "x86_64-pc-linux-gnu"

%struct.jpeg_decompress_struct = type { ptr, ptr, ptr, ptr, i32, i32, ptr, i32, i32, i32, i32, i32, i32, i32, double, i32, i32, i32, i32, i32, i32, i32, i32, i32, i32, i32, i32, i32, i32, i32, i32, i32, i32, ptr, i32, i32, i32, i32, i32, ptr, [4 x ptr], [4 x ptr], [4 x ptr], i32, ptr, i32, i32, [16 x i8], [16 x i8], [16 x i8], i32, i32, i8, i8, i8, i16, i16, i32, i8, i32, ptr, i32, i32, i32, i32, ptr, i32, [4 x ptr], i32, i32, i32, [10 x i32], i32, i32, i32, i32, i32, ptr, ptr, ptr, ptr, ptr, ptr, ptr, ptr, ptr, ptr, ptr }
%struct.jpeg_error_mgr = type { ptr, ptr, ptr, ptr, ptr, i32, %union.anon, i32, i64, ptr, i32, ptr, i32, i32 }
%union.anon = type { [8 x i32], [48 x i8] }
%struct.jpeg_memory_mgr = type { ptr, ptr, ptr, ptr, ptr, ptr, ptr, ptr, ptr, ptr, ptr, i64, i64 }
%struct.ppm_dest_struct = type { %struct.djpeg_dest_struct, ptr, ptr, i64, i32 }
%struct.djpeg_dest_struct = type { ptr, ptr, ptr, ptr, ptr, ptr, ptr, ptr, i32 }

; Function Attrs: nounwind uwtable
define dso_local ptr @jinit_write_ppm(ptr noundef %0) #0 {
  %2 = alloca ptr, align 8
  %3 = alloca ptr, align 8
  store ptr %0, ptr %2, align 8, !tbaa !4
  call void @llvm.lifetime.start.p0(i64 8, ptr %3) #6
  %4 = load ptr, ptr %2, align 8, !tbaa !4
  %5 = getelementptr inbounds nuw %struct.jpeg_decompress_struct, ptr %4, i32 0, i32 43
  %6 = load i32, ptr %5, align 8, !tbaa !9
  %7 = icmp sgt i32 %6, 8
  br i1 %7, label %13, label %8

8:                                                ; preds = %1
  %9 = load ptr, ptr %2, align 8, !tbaa !4
  %10 = getelementptr inbounds nuw %struct.jpeg_decompress_struct, ptr %9, i32 0, i32 43
  %11 = load i32, ptr %10, align 8, !tbaa !9
  %12 = icmp slt i32 %11, 2
  br i1 %12, label %13, label %32

13:                                               ; preds = %8, %1
  %14 = load ptr, ptr %2, align 8, !tbaa !4
  %15 = getelementptr inbounds nuw %struct.jpeg_decompress_struct, ptr %14, i32 0, i32 0
  %16 = load ptr, ptr %15, align 8, !tbaa !33
  %17 = getelementptr inbounds nuw %struct.jpeg_error_mgr, ptr %16, i32 0, i32 5
  store i32 15, ptr %17, align 8, !tbaa !34
  %18 = load ptr, ptr %2, align 8, !tbaa !4
  %19 = getelementptr inbounds nuw %struct.jpeg_decompress_struct, ptr %18, i32 0, i32 43
  %20 = load i32, ptr %19, align 8, !tbaa !9
  %21 = load ptr, ptr %2, align 8, !tbaa !4
  %22 = getelementptr inbounds nuw %struct.jpeg_decompress_struct, ptr %21, i32 0, i32 0
  %23 = load ptr, ptr %22, align 8, !tbaa !33
  %24 = getelementptr inbounds nuw %struct.jpeg_error_mgr, ptr %23, i32 0, i32 6
  %25 = getelementptr inbounds [8 x i32], ptr %24, i64 0, i64 0
  store i32 %20, ptr %25, align 4, !tbaa !37
  %26 = load ptr, ptr %2, align 8, !tbaa !4
  %27 = getelementptr inbounds nuw %struct.jpeg_decompress_struct, ptr %26, i32 0, i32 0
  %28 = load ptr, ptr %27, align 8, !tbaa !33
  %29 = getelementptr inbounds nuw %struct.jpeg_error_mgr, ptr %28, i32 0, i32 0
  %30 = load ptr, ptr %29, align 8, !tbaa !38
  %31 = load ptr, ptr %2, align 8, !tbaa !4
  call void %30(ptr noundef %31)
  br label %32

32:                                               ; preds = %13, %8
  %33 = load ptr, ptr %2, align 8, !tbaa !4
  %34 = getelementptr inbounds nuw %struct.jpeg_decompress_struct, ptr %33, i32 0, i32 1
  %35 = load ptr, ptr %34, align 8, !tbaa !39
  %36 = getelementptr inbounds nuw %struct.jpeg_memory_mgr, ptr %35, i32 0, i32 0
  %37 = load ptr, ptr %36, align 8, !tbaa !40
  %38 = load ptr, ptr %2, align 8, !tbaa !4
  %39 = call ptr %37(ptr noundef %38, i32 noundef 1, i64 noundef 104)
  store ptr %39, ptr %3, align 8, !tbaa !42
  %40 = load ptr, ptr %3, align 8, !tbaa !42
  %41 = getelementptr inbounds nuw %struct.ppm_dest_struct, ptr %40, i32 0, i32 0
  %42 = getelementptr inbounds nuw %struct.djpeg_dest_struct, ptr %41, i32 0, i32 0
  store ptr @start_output_ppm, ptr %42, align 8, !tbaa !43
  %43 = load ptr, ptr %3, align 8, !tbaa !42
  %44 = getelementptr inbounds nuw %struct.ppm_dest_struct, ptr %43, i32 0, i32 0
  %45 = getelementptr inbounds nuw %struct.djpeg_dest_struct, ptr %44, i32 0, i32 2
  store ptr @finish_output_ppm, ptr %45, align 8, !tbaa !48
  %46 = load ptr, ptr %3, align 8, !tbaa !42
  %47 = getelementptr inbounds nuw %struct.ppm_dest_struct, ptr %46, i32 0, i32 0
  %48 = getelementptr inbounds nuw %struct.djpeg_dest_struct, ptr %47, i32 0, i32 3
  store ptr @calc_buffer_dimensions_ppm, ptr %48, align 8, !tbaa !49
  %49 = load ptr, ptr %2, align 8, !tbaa !4
  call void @jpeg_calc_output_dimensions(ptr noundef %49)
  %50 = load ptr, ptr %3, align 8, !tbaa !42
  %51 = getelementptr inbounds nuw %struct.ppm_dest_struct, ptr %50, i32 0, i32 0
  %52 = getelementptr inbounds nuw %struct.djpeg_dest_struct, ptr %51, i32 0, i32 3
  %53 = load ptr, ptr %52, align 8, !tbaa !49
  %54 = load ptr, ptr %2, align 8, !tbaa !4
  %55 = load ptr, ptr %3, align 8, !tbaa !42
  call void %53(ptr noundef %54, ptr noundef %55)
  %56 = load ptr, ptr %2, align 8, !tbaa !4
  %57 = getelementptr inbounds nuw %struct.jpeg_decompress_struct, ptr %56, i32 0, i32 1
  %58 = load ptr, ptr %57, align 8, !tbaa !39
  %59 = getelementptr inbounds nuw %struct.jpeg_memory_mgr, ptr %58, i32 0, i32 0
  %60 = load ptr, ptr %59, align 8, !tbaa !40
  %61 = load ptr, ptr %2, align 8, !tbaa !4
  %62 = load ptr, ptr %3, align 8, !tbaa !42
  %63 = getelementptr inbounds nuw %struct.ppm_dest_struct, ptr %62, i32 0, i32 3
  %64 = load i64, ptr %63, align 8, !tbaa !50
  %65 = call ptr %60(ptr noundef %61, i32 noundef 1, i64 noundef %64)
  %66 = load ptr, ptr %3, align 8, !tbaa !42
  %67 = getelementptr inbounds nuw %struct.ppm_dest_struct, ptr %66, i32 0, i32 1
  store ptr %65, ptr %67, align 8, !tbaa !51
  %68 = load ptr, ptr %2, align 8, !tbaa !4
  %69 = getelementptr inbounds nuw %struct.jpeg_decompress_struct, ptr %68, i32 0, i32 20
  %70 = load i32, ptr %69, align 4, !tbaa !52
  %71 = icmp ne i32 %70, 0
  br i1 %71, label %82, label %72

72:                                               ; preds = %32
  %73 = load ptr, ptr %2, align 8, !tbaa !4
  %74 = getelementptr inbounds nuw %struct.jpeg_decompress_struct, ptr %73, i32 0, i32 11
  %75 = load i32, ptr %74, align 8, !tbaa !53
  %76 = icmp ne i32 %75, 6
  br i1 %76, label %77, label %156

77:                                               ; preds = %72
  %78 = load ptr, ptr %2, align 8, !tbaa !4
  %79 = getelementptr inbounds nuw %struct.jpeg_decompress_struct, ptr %78, i32 0, i32 11
  %80 = load i32, ptr %79, align 8, !tbaa !53
  %81 = icmp ne i32 %80, 2
  br i1 %81, label %82, label %156

82:                                               ; preds = %77, %32
  %83 = load ptr, ptr %2, align 8, !tbaa !4
  %84 = getelementptr inbounds nuw %struct.jpeg_decompress_struct, ptr %83, i32 0, i32 1
  %85 = load ptr, ptr %84, align 8, !tbaa !39
  %86 = getelementptr inbounds nuw %struct.jpeg_memory_mgr, ptr %85, i32 0, i32 2
  %87 = load ptr, ptr %86, align 8, !tbaa !54
  %88 = load ptr, ptr %2, align 8, !tbaa !4
  %89 = load ptr, ptr %2, align 8, !tbaa !4
  %90 = getelementptr inbounds nuw %struct.jpeg_decompress_struct, ptr %89, i32 0, i32 27
  %91 = load i32, ptr %90, align 8, !tbaa !55
  %92 = load ptr, ptr %2, align 8, !tbaa !4
  %93 = getelementptr inbounds nuw %struct.jpeg_decompress_struct, ptr %92, i32 0, i32 30
  %94 = load i32, ptr %93, align 4, !tbaa !56
  %95 = mul i32 %91, %94
  %96 = call ptr %87(ptr noundef %88, i32 noundef 1, i32 noundef %95, i32 noundef 1)
  %97 = load ptr, ptr %3, align 8, !tbaa !42
  %98 = getelementptr inbounds nuw %struct.ppm_dest_struct, ptr %97, i32 0, i32 0
  %99 = getelementptr inbounds nuw %struct.djpeg_dest_struct, ptr %98, i32 0, i32 5
  store ptr %96, ptr %99, align 8, !tbaa !57
  %100 = load ptr, ptr %3, align 8, !tbaa !42
  %101 = getelementptr inbounds nuw %struct.ppm_dest_struct, ptr %100, i32 0, i32 0
  %102 = getelementptr inbounds nuw %struct.djpeg_dest_struct, ptr %101, i32 0, i32 8
  store i32 1, ptr %102, align 8, !tbaa !58
  %103 = load ptr, ptr %2, align 8, !tbaa !4
  %104 = getelementptr inbounds nuw %struct.jpeg_decompress_struct, ptr %103, i32 0, i32 20
  %105 = load i32, ptr %104, align 4, !tbaa !52
  %106 = icmp ne i32 %105, 0
  br i1 %106, label %141, label %107

107:                                              ; preds = %82
  %108 = load ptr, ptr %2, align 8, !tbaa !4
  %109 = getelementptr inbounds nuw %struct.jpeg_decompress_struct, ptr %108, i32 0, i32 11
  %110 = load i32, ptr %109, align 8, !tbaa !53
  %111 = icmp eq i32 %110, 2
  br i1 %111, label %122, label %112

112:                                              ; preds = %107
  %113 = load ptr, ptr %2, align 8, !tbaa !4
  %114 = getelementptr inbounds nuw %struct.jpeg_decompress_struct, ptr %113, i32 0, i32 11
  %115 = load i32, ptr %114, align 8, !tbaa !53
  %116 = icmp uge i32 %115, 6
  br i1 %116, label %117, label %126

117:                                              ; preds = %112
  %118 = load ptr, ptr %2, align 8, !tbaa !4
  %119 = getelementptr inbounds nuw %struct.jpeg_decompress_struct, ptr %118, i32 0, i32 11
  %120 = load i32, ptr %119, align 8, !tbaa !53
  %121 = icmp ule i32 %120, 15
  br i1 %121, label %122, label %126

122:                                              ; preds = %117, %107
  %123 = load ptr, ptr %3, align 8, !tbaa !42
  %124 = getelementptr inbounds nuw %struct.ppm_dest_struct, ptr %123, i32 0, i32 0
  %125 = getelementptr inbounds nuw %struct.djpeg_dest_struct, ptr %124, i32 0, i32 1
  store ptr @put_rgb, ptr %125, align 8, !tbaa !59
  br label %140

126:                                              ; preds = %117, %112
  %127 = load ptr, ptr %2, align 8, !tbaa !4
  %128 = getelementptr inbounds nuw %struct.jpeg_decompress_struct, ptr %127, i32 0, i32 11
  %129 = load i32, ptr %128, align 8, !tbaa !53
  %130 = icmp eq i32 %129, 4
  br i1 %130, label %131, label %135

131:                                              ; preds = %126
  %132 = load ptr, ptr %3, align 8, !tbaa !42
  %133 = getelementptr inbounds nuw %struct.ppm_dest_struct, ptr %132, i32 0, i32 0
  %134 = getelementptr inbounds nuw %struct.djpeg_dest_struct, ptr %133, i32 0, i32 1
  store ptr @put_cmyk, ptr %134, align 8, !tbaa !59
  br label %139

135:                                              ; preds = %126
  %136 = load ptr, ptr %3, align 8, !tbaa !42
  %137 = getelementptr inbounds nuw %struct.ppm_dest_struct, ptr %136, i32 0, i32 0
  %138 = getelementptr inbounds nuw %struct.djpeg_dest_struct, ptr %137, i32 0, i32 1
  store ptr @copy_pixel_rows, ptr %138, align 8, !tbaa !59
  br label %139

139:                                              ; preds = %135, %131
  br label %140

140:                                              ; preds = %139, %122
  br label %155

141:                                              ; preds = %82
  %142 = load ptr, ptr %2, align 8, !tbaa !4
  %143 = getelementptr inbounds nuw %struct.jpeg_decompress_struct, ptr %142, i32 0, i32 11
  %144 = load i32, ptr %143, align 8, !tbaa !53
  %145 = icmp eq i32 %144, 1
  br i1 %145, label %146, label %150

146:                                              ; preds = %141
  %147 = load ptr, ptr %3, align 8, !tbaa !42
  %148 = getelementptr inbounds nuw %struct.ppm_dest_struct, ptr %147, i32 0, i32 0
  %149 = getelementptr inbounds nuw %struct.djpeg_dest_struct, ptr %148, i32 0, i32 1
  store ptr @put_demapped_gray, ptr %149, align 8, !tbaa !59
  br label %154

150:                                              ; preds = %141
  %151 = load ptr, ptr %3, align 8, !tbaa !42
  %152 = getelementptr inbounds nuw %struct.ppm_dest_struct, ptr %151, i32 0, i32 0
  %153 = getelementptr inbounds nuw %struct.djpeg_dest_struct, ptr %152, i32 0, i32 1
  store ptr @put_demapped_rgb, ptr %153, align 8, !tbaa !59
  br label %154

154:                                              ; preds = %150, %146
  br label %155

155:                                              ; preds = %154, %140
  br label %173

156:                                              ; preds = %77, %72
  %157 = load ptr, ptr %3, align 8, !tbaa !42
  %158 = getelementptr inbounds nuw %struct.ppm_dest_struct, ptr %157, i32 0, i32 1
  %159 = load ptr, ptr %158, align 8, !tbaa !51
  %160 = load ptr, ptr %3, align 8, !tbaa !42
  %161 = getelementptr inbounds nuw %struct.ppm_dest_struct, ptr %160, i32 0, i32 2
  store ptr %159, ptr %161, align 8, !tbaa !60
  %162 = load ptr, ptr %3, align 8, !tbaa !42
  %163 = getelementptr inbounds nuw %struct.ppm_dest_struct, ptr %162, i32 0, i32 2
  %164 = load ptr, ptr %3, align 8, !tbaa !42
  %165 = getelementptr inbounds nuw %struct.ppm_dest_struct, ptr %164, i32 0, i32 0
  %166 = getelementptr inbounds nuw %struct.djpeg_dest_struct, ptr %165, i32 0, i32 5
  store ptr %163, ptr %166, align 8, !tbaa !57
  %167 = load ptr, ptr %3, align 8, !tbaa !42
  %168 = getelementptr inbounds nuw %struct.ppm_dest_struct, ptr %167, i32 0, i32 0
  %169 = getelementptr inbounds nuw %struct.djpeg_dest_struct, ptr %168, i32 0, i32 8
  store i32 1, ptr %169, align 8, !tbaa !58
  %170 = load ptr, ptr %3, align 8, !tbaa !42
  %171 = getelementptr inbounds nuw %struct.ppm_dest_struct, ptr %170, i32 0, i32 0
  %172 = getelementptr inbounds nuw %struct.djpeg_dest_struct, ptr %171, i32 0, i32 1
  store ptr @put_pixel_rows, ptr %172, align 8, !tbaa !59
  br label %173

173:                                              ; preds = %156, %155
  %174 = load ptr, ptr %3, align 8, !tbaa !42
  call void @llvm.lifetime.end.p0(i64 8, ptr %3) #6
  ret ptr %174
}