; Function Attrs: nounwind uwtable
define dso_local noundef ptr @jinit_write_ppm(ptr noundef %0) local_unnamed_addr #0 {
  %2 = getelementptr inbounds nuw i8, ptr %0, i64 296
  %3 = load i32, ptr %2, align 8, !tbaa !4
  %4 = add i32 %3, -9
  %or.cond = icmp ult i32 %4, -7
  br i1 %or.cond, label %5, label %11

5:                                                ; preds = %1
  %6 = load ptr, ptr %0, align 8, !tbaa !31
  %7 = getelementptr inbounds nuw i8, ptr %6, i64 40
  store i32 15, ptr %7, align 8, !tbaa !32
  %8 = getelementptr inbounds nuw i8, ptr %6, i64 44
  store i32 %3, ptr %8, align 4, !tbaa !35
  %9 = load ptr, ptr %0, align 8, !tbaa !31
  %10 = load ptr, ptr %9, align 8, !tbaa !36
  tail call void %10(ptr noundef nonnull %0) #7
  br label %11

11:                                               ; preds = %1, %5
  %12 = getelementptr inbounds nuw i8, ptr %0, i64 8
  %13 = load ptr, ptr %12, align 8, !tbaa !37
  %14 = load ptr, ptr %13, align 8, !tbaa !38
  %15 = tail call ptr %14(ptr noundef nonnull %0, i32 noundef 1, i64 noundef 104) #7
  store ptr @start_output_ppm, ptr %15, align 8, !tbaa !40
  %16 = getelementptr inbounds nuw i8, ptr %15, i64 16
  store ptr @finish_output_ppm, ptr %16, align 8, !tbaa !45
  %17 = getelementptr inbounds nuw i8, ptr %15, i64 24
  store ptr @calc_buffer_dimensions_ppm, ptr %17, align 8, !tbaa !46
  tail call void @jpeg_calc_output_dimensions(ptr noundef nonnull %0) #7
  %18 = load ptr, ptr %17, align 8, !tbaa !46
  tail call void %18(ptr noundef nonnull %0, ptr noundef nonnull %15) #7
  %19 = load ptr, ptr %12, align 8, !tbaa !37
  %20 = load ptr, ptr %19, align 8, !tbaa !38
  %21 = getelementptr inbounds nuw i8, ptr %15, i64 88
  %22 = load i64, ptr %21, align 8, !tbaa !47
  %23 = tail call ptr %20(ptr noundef nonnull %0, i32 noundef 1, i64 noundef %22) #7
  %24 = getelementptr inbounds nuw i8, ptr %15, i64 72
  store ptr %23, ptr %24, align 8, !tbaa !48
  %25 = getelementptr inbounds nuw i8, ptr %0, i64 108
  %26 = load i32, ptr %25, align 4, !tbaa !49
  %.not = icmp eq i32 %26, 0
  br i1 %.not, label %27, label %30

27:                                               ; preds = %11
  %28 = getelementptr inbounds nuw i8, ptr %0, i64 64
  %29 = load i32, ptr %28, align 8, !tbaa !50
  switch i32 %29, label %30 [
    i32 6, label %60
    i32 2, label %60
  ]

30:                                               ; preds = %27, %11
  %31 = load ptr, ptr %12, align 8, !tbaa !37
  %32 = getelementptr inbounds nuw i8, ptr %31, i64 16
  %33 = load ptr, ptr %32, align 8, !tbaa !51
  %34 = getelementptr inbounds nuw i8, ptr %0, i64 136
  %35 = load i32, ptr %34, align 8, !tbaa !52
  %36 = getelementptr inbounds nuw i8, ptr %0, i64 148
  %37 = load i32, ptr %36, align 4, !tbaa !53
  %38 = mul i32 %37, %35
  %39 = tail call ptr %33(ptr noundef nonnull %0, i32 noundef 1, i32 noundef %38, i32 noundef 1) #7
  %40 = getelementptr inbounds nuw i8, ptr %15, i64 40
  store ptr %39, ptr %40, align 8, !tbaa !54
  %41 = getelementptr inbounds nuw i8, ptr %15, i64 64
  store i32 1, ptr %41, align 8, !tbaa !55
  %42 = load i32, ptr %25, align 4, !tbaa !49
  %.not51 = icmp eq i32 %42, 0
  %43 = getelementptr inbounds nuw i8, ptr %0, i64 64
  %44 = load i32, ptr %43, align 8, !tbaa !50
  br i1 %.not51, label %45, label %55

45:                                               ; preds = %30
  %46 = icmp eq i32 %44, 2
  %47 = add i32 %44, -6
  %or.cond52 = icmp ult i32 %47, 10
  %or.cond53 = or i1 %46, %or.cond52
  br i1 %or.cond53, label %48, label %50

48:                                               ; preds = %45
  %49 = getelementptr inbounds nuw i8, ptr %15, i64 8
  store ptr @put_rgb, ptr %49, align 8, !tbaa !56
  br label %65

50:                                               ; preds = %45
  %51 = icmp eq i32 %44, 4
  %52 = getelementptr inbounds nuw i8, ptr %15, i64 8
  br i1 %51, label %53, label %54

53:                                               ; preds = %50
  store ptr @put_cmyk, ptr %52, align 8, !tbaa !56
  br label %65

54:                                               ; preds = %50
  store ptr @copy_pixel_rows, ptr %52, align 8, !tbaa !56
  br label %65

55:                                               ; preds = %30
  %56 = icmp eq i32 %44, 1
  %57 = getelementptr inbounds nuw i8, ptr %15, i64 8
  br i1 %56, label %58, label %59

58:                                               ; preds = %55
  store ptr @put_demapped_gray, ptr %57, align 8, !tbaa !56
  br label %65

59:                                               ; preds = %55
  store ptr @put_demapped_rgb, ptr %57, align 8, !tbaa !56
  br label %65

60:                                               ; preds = %27, %27
  %61 = getelementptr inbounds nuw i8, ptr %15, i64 80
  store ptr %23, ptr %61, align 8, !tbaa !57
  %62 = getelementptr inbounds nuw i8, ptr %15, i64 40
  store ptr %61, ptr %62, align 8, !tbaa !54
  %63 = getelementptr inbounds nuw i8, ptr %15, i64 64
  store i32 1, ptr %63, align 8, !tbaa !55
  %64 = getelementptr inbounds nuw i8, ptr %15, i64 8
  store ptr @put_pixel_rows, ptr %64, align 8, !tbaa !56
  br label %65

65:                                               ; preds = %53, %54, %48, %59, %58, %60
  ret ptr %15
}